; Function Attrs: mustprogress uwtable
define void @_ZN9grpc_core8internal29SetXdsFallbackBootstrapConfigEPKc(ptr noundef %config) local_unnamed_addr #5 personality ptr @__gxx_personality_v0 {
entry:
  %0 = load ptr, ptr @_ZN9grpc_core12_GLOBAL__N_14g_muE, align 8
  tail call void @_ZN4absl12lts_202308025Mutex4LockEv(ptr noundef nonnull align 8 dereferenceable(8) %0)
  %1 = load ptr, ptr @_ZN9grpc_core12_GLOBAL__N_127g_fallback_bootstrap_configE, align 8
  invoke void @gpr_free(ptr noundef %1)
          to label %invoke.cont unwind label %lpad

invoke.cont:                                      ; preds = %entry
  %call = invoke ptr @gpr_strdup(ptr noundef %config)
          to label %invoke.cont1 unwind label %lpad

invoke.cont1:                                     ; preds = %invoke.cont
  store ptr %call, ptr @_ZN9grpc_core12_GLOBAL__N_127g_fallback_bootstrap_configE, align 8
  invoke void @_ZN4absl12lts_202308025Mutex6UnlockEv(ptr noundef nonnull align 8 dereferenceable(8) %0)
          to label %_ZN4absl12lts_202308029MutexLockD2Ev.exit unwind label %terminate.lpad.i

terminate.lpad.i:                                 ; preds = %invoke.cont1
  %2 = landingpad { ptr, i32 }
          catch ptr null
  %3 = extractvalue { ptr, i32 } %2, 0
  tail call void @__clang_call_terminate(ptr %3) #25
  unreachable

_ZN4absl12lts_202308029MutexLockD2Ev.exit:        ; preds = %invoke.cont1
  ret void

lpad:                                             ; preds = %invoke.cont, %entry
  %4 = landingpad { ptr, i32 }
          cleanup
  invoke void @_ZN4absl12lts_202308025Mutex6UnlockEv(ptr noundef nonnull align 8 dereferenceable(8) %0)
          to label %_ZN4absl12lts_202308029MutexLockD2Ev.exit2 unwind label %terminate.lpad.i1

terminate.lpad.i1:                                ; preds = %lpad
  %5 = landingpad { ptr, i32 }
          catch ptr null
  %6 = extractvalue { ptr, i32 } %5, 0
  tail call void @__clang_call_terminate(ptr %6) #25
  unreachable

_ZN4absl12lts_202308029MutexLockD2Ev.exit2:       ; preds = %lpad
  resume { ptr, i32 } %4
}